target datalayout = "e-m:e-p270:32:32-p271:32:32-p272:64:64-i64:64-i128:128-f80:128-n8:16:32:64-S128"
target triple = "x86_64-pc-linux-gnu"

%struct.KLVPacket = type { [16 x i8], i64, i64, i64 }
%struct.AVFormatContext = type { ptr, ptr, ptr, ptr, ptr, i32, i32, ptr, i32, ptr, i32, ptr, ptr, i64, i64, i64, i32, i32, i32, i64, i64, ptr, i32, i32, ptr, i32, i32, i32, i32, ptr, i64, i32, i32, %struct.AVIOInterruptCB, i32, i32, i32, i32, i64, i32, i32, i32, i32, i32, i32, i32, i32, i32, i32, i32, i32, i64, i32, i32, i32, i32, i32, ptr, ptr, ptr, ptr, i32, ptr, ptr, ptr, ptr, i32, ptr, ptr, i64, ptr, ptr, ptr, i64 }
%struct.AVIOInterruptCB = type { ptr, ptr }
%struct.MXFContext = type { ptr, ptr, i32, i32, ptr, i32, ptr, i32, [26 x %struct.MXFMetadataSetGroup], ptr, ptr, ptr, i32, i64, %struct.KLVPacket, i32, ptr, i32, i64, i32, i32, ptr, i32 }
%struct.MXFMetadataSetGroup = type { ptr, i32 }
%struct.MXFPartition = type { i32, i32, i32, i64, i32, i32, i64, i64, i32, i64, i64, i32, i64, i64, %struct.KLVPacket }

@mxf_header_partition_pack_key = internal constant [14 x i8] c"\06\0E+4\02\05\01\01\0D\01\02\01\01\02", align 1
@.str.16 = private unnamed_addr constant [31 x i8] c"seeking to previous partition\0A\00", align 1
@.str.17 = private unnamed_addr constant [34 x i8] c"failed to read PartitionPack KLV\0A\00", align 1
@.str.18 = private unnamed_addr constant [47 x i8] c"PreviousPartition @ %lx isn't a PartitionPack\0A\00", align 1
@.str.19 = private unnamed_addr constant [71 x i8] c"PreviousPartition for PartitionPack @ %lx indirectly points to itself\0A\00", align 1

; Function Attrs: nounwind uwtable
define internal i32 @mxf_is_partition_pack_key(ptr noundef %0) #0 {
  %2 = alloca ptr, align 8
  store ptr %0, ptr %2, align 8, !tbaa !13
  %3 = load ptr, ptr %2, align 8, !tbaa !13
  %4 = call i32 @memcmp(ptr noundef %3, ptr noundef @mxf_header_partition_pack_key, i64 noundef 13) #14
  %5 = icmp ne i32 %4, 0
  br i1 %5, label %18, label %6

6:                                                ; preds = %1
  %7 = load ptr, ptr %2, align 8, !tbaa !13
  %8 = getelementptr inbounds i8, ptr %7, i64 13
  %9 = load i8, ptr %8, align 1, !tbaa !15
  %10 = zext i8 %9 to i32
  %11 = icmp sge i32 %10, 2
  br i1 %11, label %12, label %18

12:                                               ; preds = %6
  %13 = load ptr, ptr %2, align 8, !tbaa !13
  %14 = getelementptr inbounds i8, ptr %13, i64 13
  %15 = load i8, ptr %14, align 1, !tbaa !15
  %16 = zext i8 %15 to i32
  %17 = icmp sle i32 %16, 4
  br label %18

18:                                               ; preds = %12, %6, %1
  %19 = phi i1 [ false, %6 ], [ false, %1 ], [ %17, %12 ]
  %20 = zext i1 %19 to i32
  ret i32 %20
}

; Function Attrs: nounwind uwtable
define internal i32 @mxf_seek_to_previous_partition(ptr noundef %0) #0 {
  %2 = alloca i32, align 4
  %3 = alloca ptr, align 8
  %4 = alloca ptr, align 8
  %5 = alloca %struct.KLVPacket, align 8
  %6 = alloca i64, align 8
  %7 = alloca i32, align 4
  %8 = alloca i32, align 4
  store ptr %0, ptr %3, align 8, !tbaa !35
  call void @llvm.lifetime.start.p0(i64 8, ptr %4) #13
  %9 = load ptr, ptr %3, align 8, !tbaa !35
  %10 = getelementptr inbounds nuw %struct.MXFContext, ptr %9, i32 0, i32 9
  %11 = load ptr, ptr %10, align 8, !tbaa !45
  %12 = getelementptr inbounds nuw %struct.AVFormatContext, ptr %11, i32 0, i32 4
  %13 = load ptr, ptr %12, align 8, !tbaa !44
  store ptr %13, ptr %4, align 8, !tbaa !138
  call void @llvm.lifetime.start.p0(i64 40, ptr %5) #13
  call void @llvm.lifetime.start.p0(i64 8, ptr %6) #13
  call void @llvm.lifetime.start.p0(i64 4, ptr %7) #13
  %14 = load ptr, ptr %3, align 8, !tbaa !35
  %15 = getelementptr inbounds nuw %struct.MXFContext, ptr %14, i32 0, i32 16
  %16 = load ptr, ptr %15, align 8, !tbaa !52
  %17 = icmp ne ptr %16, null
  br i1 %17, label %18, label %33

18:                                               ; preds = %1
  %19 = load ptr, ptr %3, align 8, !tbaa !35
  %20 = getelementptr inbounds nuw %struct.MXFContext, ptr %19, i32 0, i32 15
  %21 = load i32, ptr %20, align 8, !tbaa !46
  %22 = sext i32 %21 to i64
  %23 = load ptr, ptr %3, align 8, !tbaa !35
  %24 = getelementptr inbounds nuw %struct.MXFContext, ptr %23, i32 0, i32 16
  %25 = load ptr, ptr %24, align 8, !tbaa !52
  %26 = getelementptr inbounds nuw %struct.MXFPartition, ptr %25, i32 0, i32 3
  %27 = load i64, ptr %26, align 8, !tbaa !284
  %28 = add i64 %22, %27
  %29 = load ptr, ptr %3, align 8, !tbaa !35
  %30 = getelementptr inbounds nuw %struct.MXFContext, ptr %29, i32 0, i32 18
  %31 = load i64, ptr %30, align 8, !tbaa !38
  %32 = icmp ule i64 %28, %31
  br i1 %32, label %33, label %34

33:                                               ; preds = %18, %1
  store i32 0, ptr %2, align 4
  store i32 1, ptr %8, align 4
  br label %94

34:                                               ; preds = %18
  %35 = load ptr, ptr %3, align 8, !tbaa !35
  %36 = getelementptr inbounds nuw %struct.MXFContext, ptr %35, i32 0, i32 16
  %37 = load ptr, ptr %36, align 8, !tbaa !52
  %38 = getelementptr inbounds nuw %struct.MXFPartition, ptr %37, i32 0, i32 12
  %39 = load i64, ptr %38, align 8, !tbaa !278
  store i64 %39, ptr %6, align 8, !tbaa !37
  %40 = load ptr, ptr %4, align 8, !tbaa !138
  %41 = load ptr, ptr %3, align 8, !tbaa !35
  %42 = getelementptr inbounds nuw %struct.MXFContext, ptr %41, i32 0, i32 15
  %43 = load i32, ptr %42, align 8, !tbaa !46
  %44 = sext i32 %43 to i64
  %45 = load ptr, ptr %3, align 8, !tbaa !35
  %46 = getelementptr inbounds nuw %struct.MXFContext, ptr %45, i32 0, i32 16
  %47 = load ptr, ptr %46, align 8, !tbaa !52
  %48 = getelementptr inbounds nuw %struct.MXFPartition, ptr %47, i32 0, i32 3
  %49 = load i64, ptr %48, align 8, !tbaa !284
  %50 = add i64 %44, %49
  %51 = call i64 @avio_seek(ptr noundef %40, i64 noundef %50, i32 noundef 0)
  %52 = load ptr, ptr %3, align 8, !tbaa !35
  %53 = getelementptr inbounds nuw %struct.MXFContext, ptr %52, i32 0, i32 16
  store ptr null, ptr %53, align 8, !tbaa !52
  %54 = load ptr, ptr %3, align 8, !tbaa !35
  %55 = getelementptr inbounds nuw %struct.MXFContext, ptr %54, i32 0, i32 9
  %56 = load ptr, ptr %55, align 8, !tbaa !45
  call void (ptr, i32, ptr, ...) @av_log(ptr noundef %56, i32 noundef 56, ptr noundef @.str.16)
  %57 = load ptr, ptr %3, align 8, !tbaa !35
  %58 = load ptr, ptr %4, align 8, !tbaa !138
  %59 = call i32 @klv_read_packet(ptr noundef %57, ptr noundef %5, ptr noundef %58)
  store i32 %59, ptr %7, align 4, !tbaa !47
  %60 = icmp slt i32 %59, 0
  br i1 %60, label %61, label %66

61:                                               ; preds = %34
  %62 = load ptr, ptr %3, align 8, !tbaa !35
  %63 = getelementptr inbounds nuw %struct.MXFContext, ptr %62, i32 0, i32 9
  %64 = load ptr, ptr %63, align 8, !tbaa !45
  call void (ptr, i32, ptr, ...) @av_log(ptr noundef %64, i32 noundef 16, ptr noundef @.str.17)
  %65 = load i32, ptr %7, align 4, !tbaa !47
  store i32 %65, ptr %2, align 4
  store i32 1, ptr %8, align 4
  br label %94

66:                                               ; preds = %34
  %67 = getelementptr inbounds nuw %struct.KLVPacket, ptr %5, i32 0, i32 0
  %68 = getelementptr inbounds [16 x i8], ptr %67, i64 0, i64 0
  %69 = call i32 @mxf_is_partition_pack_key(ptr noundef %68)
  %70 = icmp ne i32 %69, 0
  br i1 %70, label %77, label %71

71:                                               ; preds = %66
  %72 = load ptr, ptr %3, align 8, !tbaa !35
  %73 = getelementptr inbounds nuw %struct.MXFContext, ptr %72, i32 0, i32 9
  %74 = load ptr, ptr %73, align 8, !tbaa !45
  %75 = getelementptr inbounds nuw %struct.KLVPacket, ptr %5, i32 0, i32 1
  %76 = load i64, ptr %75, align 8, !tbaa !51
  call void (ptr, i32, ptr, ...) @av_log(ptr noundef %74, i32 noundef 16, ptr noundef @.str.18, i64 noundef %76)
  store i32 -1094995529, ptr %2, align 4
  store i32 1, ptr %8, align 4
  br label %94

77:                                               ; preds = %66
  %78 = getelementptr inbounds nuw %struct.KLVPacket, ptr %5, i32 0, i32 1
  %79 = load i64, ptr %78, align 8, !tbaa !51
  %80 = load i64, ptr %6, align 8, !tbaa !37
  %81 = icmp sge i64 %79, %80
  br i1 %81, label %82, label %87

82:                                               ; preds = %77
  %83 = load ptr, ptr %3, align 8, !tbaa !35
  %84 = getelementptr inbounds nuw %struct.MXFContext, ptr %83, i32 0, i32 9
  %85 = load ptr, ptr %84, align 8, !tbaa !45
  %86 = load i64, ptr %6, align 8, !tbaa !37
  call void (ptr, i32, ptr, ...) @av_log(ptr noundef %85, i32 noundef 16, ptr noundef @.str.19, i64 noundef %86)
  store i32 -1094995529, ptr %2, align 4
  store i32 1, ptr %8, align 4
  br label %94

87:                                               ; preds = %77
  %88 = load ptr, ptr %3, align 8, !tbaa !35
  %89 = call i32 @mxf_parse_klv(ptr noundef %88, ptr noundef byval(%struct.KLVPacket) align 8 %5, ptr noundef @mxf_read_partition_pack, i32 noundef 0, i32 noundef 0)
  store i32 %89, ptr %7, align 4, !tbaa !47
  %90 = icmp slt i32 %89, 0
  br i1 %90, label %91, label %93

91:                                               ; preds = %87
  %92 = load i32, ptr %7, align 4, !tbaa !47
  store i32 %92, ptr %2, align 4
  store i32 1, ptr %8, align 4
  br label %94

93:                                               ; preds = %87
  store i32 1, ptr %2, align 4
  store i32 1, ptr %8, align 4
  br label %94

94:                                               ; preds = %93, %91, %82, %71, %61, %33
  call void @llvm.lifetime.end.p0(i64 4, ptr %7) #13
  call void @llvm.lifetime.end.p0(i64 8, ptr %6) #13
  call void @llvm.lifetime.end.p0(i64 40, ptr %5) #13
  call void @llvm.lifetime.end.p0(i64 8, ptr %4) #13
  %95 = load i32, ptr %2, align 4
  ret i32 %95
}