; Function Attrs: nounwind uwtable
define internal fastcc range(i32 -2147483648, 2) i32 @mxf_seek_to_previous_partition(ptr noundef %0) unnamed_addr #1 {
  %2 = alloca %struct.KLVPacket, align 8
  %3 = getelementptr inbounds nuw i8, ptr %0, i64 472
  %4 = load ptr, ptr %3, align 8, !tbaa !39
  %5 = getelementptr inbounds nuw i8, ptr %4, i64 32
  %6 = load ptr, ptr %5, align 8, !tbaa !37
  call void @llvm.lifetime.start.p0(i64 40, ptr nonnull %2) #15
  %7 = getelementptr inbounds nuw i8, ptr %0, i64 560
  %8 = load ptr, ptr %7, align 8, !tbaa !49
  %.not = icmp eq ptr %8, null
  br i1 %.not, label %43, label %9

9:                                                ; preds = %1
  %10 = getelementptr inbounds nuw i8, ptr %0, i64 552
  %11 = load i32, ptr %10, align 8, !tbaa !40
  %12 = sext i32 %11 to i64
  %13 = getelementptr inbounds nuw i8, ptr %8, i64 16
  %14 = load i64, ptr %13, align 8, !tbaa !319
  %15 = add i64 %14, %12
  %16 = getelementptr inbounds nuw i8, ptr %0, i64 576
  %17 = load i64, ptr %16, align 8, !tbaa !30
  %.not26 = icmp ugt i64 %15, %17
  br i1 %.not26, label %18, label %43

18:                                               ; preds = %9
  %19 = getelementptr inbounds nuw i8, ptr %8, i64 80
  %20 = load i64, ptr %19, align 8, !tbaa !273
  %21 = tail call i64 @avio_seek(ptr noundef %6, i64 noundef %15, i32 noundef 0) #15
  store ptr null, ptr %7, align 8, !tbaa !49
  %22 = load ptr, ptr %3, align 8, !tbaa !39
  tail call void (ptr, i32, ptr, ...) @av_log(ptr noundef %22, i32 noundef 56, ptr noundef nonnull @.str.16) #15
  %23 = call fastcc i32 @klv_read_packet(ptr noundef nonnull %0, ptr noundef %2, ptr noundef %6)
  %24 = icmp slt i32 %23, 0
  br i1 %24, label %25, label %27

25:                                               ; preds = %18
  %26 = load ptr, ptr %3, align 8, !tbaa !39
  call void (ptr, i32, ptr, ...) @av_log(ptr noundef %26, i32 noundef 16, ptr noundef nonnull @.str.17) #15
  br label %43

27:                                               ; preds = %18
  %bcmp.i = call i32 @bcmp(ptr noundef nonnull readonly dereferenceable(13) %2, ptr noundef nonnull dereferenceable(13) @mxf_header_partition_pack_key, i64 13)
  %.not.i = icmp eq i32 %bcmp.i, 0
  br i1 %.not.i, label %28, label %mxf_is_partition_pack_key.exit.thread

28:                                               ; preds = %27
  %29 = getelementptr inbounds nuw i8, ptr %2, i64 13
  %30 = load i8, ptr %29, align 1, !tbaa !12
  %31 = add i8 %30, -5
  %or.cond = icmp ult i8 %31, -3
  br i1 %or.cond, label %mxf_is_partition_pack_key.exit.thread, label %35

mxf_is_partition_pack_key.exit.thread:            ; preds = %27, %28
  %32 = load ptr, ptr %3, align 8, !tbaa !39
  %33 = getelementptr inbounds nuw i8, ptr %2, i64 16
  %34 = load i64, ptr %33, align 8, !tbaa !47
  call void (ptr, i32, ptr, ...) @av_log(ptr noundef %32, i32 noundef 16, ptr noundef nonnull @.str.18, i64 noundef %34) #15
  br label %43

35:                                               ; preds = %28
  %36 = getelementptr inbounds nuw i8, ptr %2, i64 16
  %37 = load i64, ptr %36, align 8, !tbaa !47
  %.not28 = icmp slt i64 %37, %20
  br i1 %.not28, label %40, label %38

38:                                               ; preds = %35
  %39 = load ptr, ptr %3, align 8, !tbaa !39
  call void (ptr, i32, ptr, ...) @av_log(ptr noundef %39, i32 noundef 16, ptr noundef nonnull @.str.19, i64 noundef %20) #15
  br label %43

40:                                               ; preds = %35
  %41 = call fastcc i32 @mxf_parse_klv(ptr noundef nonnull %0, ptr noundef nonnull byval(%struct.KLVPacket) align 8 %2, ptr noundef nonnull @mxf_read_partition_pack, i32 noundef 0, i32 noundef 0)
  %42 = icmp slt i32 %41, 0
  %. = select i1 %42, i32 %41, i32 1
  br label %43

43:                                               ; preds = %40, %1, %9, %38, %mxf_is_partition_pack_key.exit.thread, %25
  %.0 = phi i32 [ %23, %25 ], [ -1094995529, %38 ], [ -1094995529, %mxf_is_partition_pack_key.exit.thread ], [ 0, %9 ], [ 0, %1 ], [ %., %40 ]
  call void @llvm.lifetime.end.p0(i64 40, ptr nonnull %2) #15
  ret i32 %.0
}